target datalayout = "e-m:e-p270:32:32-p271:32:32-p272:64:64-i64:64-i128:128-f80:128-n8:16:32:64-S128"
target triple = "x86_64-pc-linux-gnu"

%struct.bio_st = type { ptr, ptr, ptr, ptr, ptr, i32, i32, i32, i32, i32, ptr, ptr, ptr, %struct.CRYPTO_REF_COUNT, i64, i64, %struct.crypto_ex_data_st }
%struct.CRYPTO_REF_COUNT = type { i32 }
%struct.crypto_ex_data_st = type { ptr, ptr }
%struct.bio_f_buffer_ctx_struct = type { i32, i32, ptr, i32, i32, ptr, i32, i32 }

; Function Attrs: nounwind uwtable
define internal i64 @readbuffer_ctrl(ptr noundef %0, i32 noundef %1, i64 noundef %2, ptr noundef %3) #0 {
  %5 = alloca i64, align 8
  %6 = alloca ptr, align 8
  %7 = alloca i32, align 4
  %8 = alloca i64, align 8
  %9 = alloca ptr, align 8
  %10 = alloca ptr, align 8
  %11 = alloca i64, align 8
  %12 = alloca i64, align 8
  %13 = alloca i32, align 4
  store ptr %0, ptr %6, align 8, !tbaa !3
  store i32 %1, ptr %7, align 4, !tbaa !10
  store i64 %2, ptr %8, align 8, !tbaa !31
  store ptr %3, ptr %9, align 8, !tbaa !32
  call void @llvm.lifetime.start.p0(i64 8, ptr %10) #4
  call void @llvm.lifetime.start.p0(i64 8, ptr %11) #4
  store i64 1, ptr %11, align 8, !tbaa !31
  call void @llvm.lifetime.start.p0(i64 8, ptr %12) #4
  %14 = load ptr, ptr %6, align 8, !tbaa !3
  %15 = getelementptr inbounds nuw %struct.bio_st, ptr %14, i32 0, i32 10
  %16 = load ptr, ptr %15, align 8, !tbaa !12
  store ptr %16, ptr %10, align 8, !tbaa !20
  %17 = load i32, ptr %7, align 4, !tbaa !10
  switch i32 %17, label %93 [
    i32 2, label %18
    i32 128, label %38
    i32 1, label %38
    i32 133, label %65
    i32 3, label %65
    i32 10, label %70
    i32 12, label %92
    i32 11, label %92
  ]

18:                                               ; preds = %4
  %19 = load ptr, ptr %10, align 8, !tbaa !20
  %20 = getelementptr inbounds nuw %struct.bio_f_buffer_ctx_struct, ptr %19, i32 0, i32 3
  %21 = load i32, ptr %20, align 8, !tbaa !23
  %22 = icmp sgt i32 %21, 0
  br i1 %22, label %23, label %24

23:                                               ; preds = %18
  store i64 0, ptr %5, align 8
  store i32 1, ptr %13, align 4
  br label %96

24:                                               ; preds = %18
  %25 = load ptr, ptr %6, align 8, !tbaa !3
  %26 = getelementptr inbounds nuw %struct.bio_st, ptr %25, i32 0, i32 11
  %27 = load ptr, ptr %26, align 8, !tbaa !22
  %28 = icmp eq ptr %27, null
  br i1 %28, label %29, label %30

29:                                               ; preds = %24
  store i64 1, ptr %5, align 8
  store i32 1, ptr %13, align 4
  br label %96

30:                                               ; preds = %24
  %31 = load ptr, ptr %6, align 8, !tbaa !3
  %32 = getelementptr inbounds nuw %struct.bio_st, ptr %31, i32 0, i32 11
  %33 = load ptr, ptr %32, align 8, !tbaa !22
  %34 = load i32, ptr %7, align 4, !tbaa !10
  %35 = load i64, ptr %8, align 8, !tbaa !31
  %36 = load ptr, ptr %9, align 8, !tbaa !32
  %37 = call i64 @BIO_ctrl(ptr noundef %33, i32 noundef %34, i64 noundef %35, ptr noundef %36)
  store i64 %37, ptr %11, align 8, !tbaa !31
  br label %94

38:                                               ; preds = %4, %4
  %39 = load ptr, ptr %10, align 8, !tbaa !20
  %40 = getelementptr inbounds nuw %struct.bio_f_buffer_ctx_struct, ptr %39, i32 0, i32 4
  %41 = load i32, ptr %40, align 4, !tbaa !26
  %42 = load ptr, ptr %10, align 8, !tbaa !20
  %43 = getelementptr inbounds nuw %struct.bio_f_buffer_ctx_struct, ptr %42, i32 0, i32 3
  %44 = load i32, ptr %43, align 8, !tbaa !23
  %45 = add nsw i32 %41, %44
  %46 = sext i32 %45 to i64
  store i64 %46, ptr %12, align 8, !tbaa !31
  %47 = load i64, ptr %8, align 8, !tbaa !31
  %48 = icmp slt i64 %47, 0
  br i1 %48, label %53, label %49

49:                                               ; preds = %38
  %50 = load i64, ptr %8, align 8, !tbaa !31
  %51 = load i64, ptr %12, align 8, !tbaa !31
  %52 = icmp sgt i64 %50, %51
  br i1 %52, label %53, label %54

53:                                               ; preds = %49, %38
  store i64 0, ptr %5, align 8
  store i32 1, ptr %13, align 4
  br label %96

54:                                               ; preds = %49
  %55 = load i64, ptr %8, align 8, !tbaa !31
  %56 = trunc i64 %55 to i32
  %57 = load ptr, ptr %10, align 8, !tbaa !20
  %58 = getelementptr inbounds nuw %struct.bio_f_buffer_ctx_struct, ptr %57, i32 0, i32 4
  store i32 %56, ptr %58, align 4, !tbaa !26
  %59 = load i64, ptr %12, align 8, !tbaa !31
  %60 = load i64, ptr %8, align 8, !tbaa !31
  %61 = sub nsw i64 %59, %60
  %62 = trunc i64 %61 to i32
  %63 = load ptr, ptr %10, align 8, !tbaa !20
  %64 = getelementptr inbounds nuw %struct.bio_f_buffer_ctx_struct, ptr %63, i32 0, i32 3
  store i32 %62, ptr %64, align 8, !tbaa !23
  br label %94

65:                                               ; preds = %4, %4
  %66 = load ptr, ptr %10, align 8, !tbaa !20
  %67 = getelementptr inbounds nuw %struct.bio_f_buffer_ctx_struct, ptr %66, i32 0, i32 4
  %68 = load i32, ptr %67, align 4, !tbaa !26
  %69 = sext i32 %68 to i64
  store i64 %69, ptr %11, align 8, !tbaa !31
  br label %94

70:                                               ; preds = %4
  %71 = load ptr, ptr %10, align 8, !tbaa !20
  %72 = getelementptr inbounds nuw %struct.bio_f_buffer_ctx_struct, ptr %71, i32 0, i32 3
  %73 = load i32, ptr %72, align 8, !tbaa !23
  %74 = sext i32 %73 to i64
  store i64 %74, ptr %11, align 8, !tbaa !31
  %75 = load i64, ptr %11, align 8, !tbaa !31
  %76 = icmp eq i64 %75, 0
  br i1 %76, label %77, label %91

77:                                               ; preds = %70
  %78 = load ptr, ptr %6, align 8, !tbaa !3
  %79 = getelementptr inbounds nuw %struct.bio_st, ptr %78, i32 0, i32 11
  %80 = load ptr, ptr %79, align 8, !tbaa !22
  %81 = icmp eq ptr %80, null
  br i1 %81, label %82, label %83

82:                                               ; preds = %77
  store i64 0, ptr %5, align 8
  store i32 1, ptr %13, align 4
  br label %96

83:                                               ; preds = %77
  %84 = load ptr, ptr %6, align 8, !tbaa !3
  %85 = getelementptr inbounds nuw %struct.bio_st, ptr %84, i32 0, i32 11
  %86 = load ptr, ptr %85, align 8, !tbaa !22
  %87 = load i32, ptr %7, align 4, !tbaa !10
  %88 = load i64, ptr %8, align 8, !tbaa !31
  %89 = load ptr, ptr %9, align 8, !tbaa !32
  %90 = call i64 @BIO_ctrl(ptr noundef %86, i32 noundef %87, i64 noundef %88, ptr noundef %89)
  store i64 %90, ptr %11, align 8, !tbaa !31
  br label %91

91:                                               ; preds = %83, %70
  br label %94

92:                                               ; preds = %4, %4
  store i64 1, ptr %11, align 8, !tbaa !31
  br label %94

93:                                               ; preds = %4
  store i64 0, ptr %11, align 8, !tbaa !31
  br label %94

94:                                               ; preds = %93, %92, %91, %65, %54, %30
  %95 = load i64, ptr %11, align 8, !tbaa !31
  store i64 %95, ptr %5, align 8
  store i32 1, ptr %13, align 4
  br label %96

96:                                               ; preds = %94, %82, %53, %29, %23
  call void @llvm.lifetime.end.p0(i64 8, ptr %12) #4
  call void @llvm.lifetime.end.p0(i64 8, ptr %11) #4
  call void @llvm.lifetime.end.p0(i64 8, ptr %10) #4
  %97 = load i64, ptr %5, align 8
  ret i64 %97
}