; Function Attrs: nounwind uwtable
define internal i64 @readbuffer_ctrl(ptr noundef readonly captures(none) %0, i32 noundef %1, i64 noundef %2, ptr noundef %3) #2 {
  %5 = getelementptr inbounds nuw i8, ptr %0, i64 64
  %6 = load ptr, ptr %5, align 8, !tbaa !3
  switch i32 %1, label %44 [
    i32 2, label %7
    i32 128, label %17
    i32 1, label %17
    i32 133, label %29
    i32 3, label %29
    i32 10, label %33
    i32 12, label %45
    i32 11, label %45
  ]

7:                                                ; preds = %4
  %8 = getelementptr inbounds nuw i8, ptr %6, i64 16
  %9 = load i32, ptr %8, align 8, !tbaa !18
  %10 = icmp sgt i32 %9, 0
  br i1 %10, label %45, label %11

11:                                               ; preds = %7
  %12 = getelementptr inbounds nuw i8, ptr %0, i64 72
  %13 = load ptr, ptr %12, align 8, !tbaa !17
  %14 = icmp eq ptr %13, null
  br i1 %14, label %45, label %15

15:                                               ; preds = %11
  %16 = tail call i64 @BIO_ctrl(ptr noundef nonnull %13, i32 noundef 2, i64 noundef %2, ptr noundef %3) #5
  br label %45

17:                                               ; preds = %4, %4
  %18 = getelementptr inbounds nuw i8, ptr %6, i64 20
  %19 = load i32, ptr %18, align 4, !tbaa !20
  %20 = getelementptr inbounds nuw i8, ptr %6, i64 16
  %21 = load i32, ptr %20, align 8, !tbaa !18
  %22 = add nsw i32 %21, %19
  %23 = icmp slt i64 %2, 0
  %24 = sext i32 %22 to i64
  %25 = icmp sgt i64 %2, %24
  %or.cond = select i1 %23, i1 true, i1 %25
  br i1 %or.cond, label %45, label %26

26:                                               ; preds = %17
  %27 = trunc i64 %2 to i32
  store i32 %27, ptr %18, align 4, !tbaa !20
  %28 = sub i32 %22, %27
  store i32 %28, ptr %20, align 8, !tbaa !18
  br label %45

29:                                               ; preds = %4, %4
  %30 = getelementptr inbounds nuw i8, ptr %6, i64 20
  %31 = load i32, ptr %30, align 4, !tbaa !20
  %32 = sext i32 %31 to i64
  br label %45

33:                                               ; preds = %4
  %34 = getelementptr inbounds nuw i8, ptr %6, i64 16
  %35 = load i32, ptr %34, align 8, !tbaa !18
  %36 = sext i32 %35 to i64
  %37 = icmp eq i32 %35, 0
  br i1 %37, label %38, label %45

38:                                               ; preds = %33
  %39 = getelementptr inbounds nuw i8, ptr %0, i64 72
  %40 = load ptr, ptr %39, align 8, !tbaa !17
  %41 = icmp eq ptr %40, null
  br i1 %41, label %45, label %42

42:                                               ; preds = %38
  %43 = tail call i64 @BIO_ctrl(ptr noundef nonnull %40, i32 noundef 10, i64 noundef %2, ptr noundef %3) #5
  br label %45

44:                                               ; preds = %4
  br label %45

45:                                               ; preds = %15, %26, %29, %44, %42, %33, %4, %4, %38, %17, %11, %7
  %.0 = phi i64 [ 0, %7 ], [ 1, %11 ], [ 0, %17 ], [ 0, %38 ], [ 0, %44 ], [ %43, %42 ], [ %36, %33 ], [ %32, %29 ], [ 1, %26 ], [ %16, %15 ], [ 1, %4 ], [ 1, %4 ]
  ret i64 %.0
}